; Function Attrs: nounwind uwtable
define dso_local void @UnlockRelation(ptr noundef readonly captures(none) %0, i32 noundef %1) local_unnamed_addr #1 {
  %3 = alloca %struct.LOCKTAG, align 4
  call void @llvm.lifetime.start.p0(i64 16, ptr nonnull %3) #8
  %4 = getelementptr inbounds nuw i8, ptr %0, i64 76
  %5 = getelementptr inbounds nuw i8, ptr %0, i64 80
  %6 = load i32, ptr %5, align 4
  store i32 %6, ptr %3, align 4
  %7 = load i32, ptr %4, align 4
  %8 = getelementptr inbounds nuw i8, ptr %3, i64 4
  store i32 %7, ptr %8, align 4
  %9 = getelementptr inbounds nuw i8, ptr %3, i64 8
  store i32 0, ptr %9, align 4
  %10 = getelementptr inbounds nuw i8, ptr %3, i64 12
  store i16 0, ptr %10, align 4
  %11 = getelementptr inbounds nuw i8, ptr %3, i64 14
  store i8 0, ptr %11, align 2
  %12 = getelementptr inbounds nuw i8, ptr %3, i64 15
  store i8 1, ptr %12, align 1
  %13 = call zeroext i1 @LockRelease(ptr noundef nonnull %3, i32 noundef %1, i1 noundef zeroext false) #8
  call void @llvm.lifetime.end.p0(i64 16, ptr nonnull %3) #8
  ret void
}